; Function Attrs: mustprogress ssp uwtable
define void @_ZN6open3d13visualization30ViewControlWithCustomAnimation6RotateEdddd(ptr noundef nonnull align 16 dereferenceable(816) %0, double noundef %1, double noundef %2, double noundef %3, double noundef %4) unnamed_addr #1 align 2 {
  %6 = getelementptr inbounds nuw i8, ptr %0, i64 728
  %7 = load i32, ptr %6, align 8, !tbaa !26
  %8 = icmp eq i32 %7, 0
  br i1 %8, label %9, label %10

9:                                                ; preds = %5
  tail call void @_ZN6open3d13visualization11ViewControl6RotateEdddd(ptr noundef nonnull align 16 dereferenceable(728) %0, double noundef %1, double noundef %2, double noundef %3, double noundef %4)
  br label %10

10:                                               ; preds = %9, %5
  ret void
}